target datalayout = "e-m:e-p270:32:32-p271:32:32-p272:64:64-i64:64-i128:128-f80:128-n8:16:32:64-S128"
target triple = "x86_64-pc-linux-gnu"

%struct.fasthash_state = type { i64, i64 }

; Function Attrs: inlinehint nounwind uwtable
define internal i64 @fasthash_mix(i64 noundef %0, i64 noundef %1) #6 {
  %3 = alloca i64, align 8
  %4 = alloca i64, align 8
  store i64 %0, ptr %3, align 8
  store i64 %1, ptr %4, align 8
  %5 = load i64, ptr %3, align 8
  %6 = lshr i64 %5, 23
  %7 = load i64, ptr %4, align 8
  %8 = add i64 %6, %7
  %9 = load i64, ptr %3, align 8
  %10 = xor i64 %9, %8
  store i64 %10, ptr %3, align 8
  %11 = load i64, ptr %3, align 8
  %12 = mul i64 %11, 2388976653695081527
  store i64 %12, ptr %3, align 8
  %13 = load i64, ptr %3, align 8
  %14 = lshr i64 %13, 47
  %15 = load i64, ptr %3, align 8
  %16 = xor i64 %15, %14
  store i64 %16, ptr %3, align 8
  %17 = load i64, ptr %3, align 8
  ret i64 %17
}

; Function Attrs: inlinehint nounwind uwtable
define internal void @fasthash_accum(ptr noundef %0, ptr noundef %1, i64 noundef %2) #6 {
  %4 = alloca ptr, align 8
  %5 = alloca ptr, align 8
  %6 = alloca i64, align 8
  %7 = alloca i32, align 4
  %8 = alloca i32, align 4
  store ptr %0, ptr %4, align 8
  store ptr %1, ptr %5, align 8
  store i64 %2, ptr %6, align 8
  call void @llvm.lifetime.start.p0(i64 4, ptr %7) #11
  %9 = load ptr, ptr %4, align 8
  %10 = getelementptr inbounds nuw %struct.fasthash_state, ptr %9, i32 0, i32 0
  store i64 0, ptr %10, align 8
  %11 = load i64, ptr %6, align 8
  switch i64 %11, label %84 [
    i64 8, label %12
    i64 7, label %16
    i64 6, label %26
    i64 5, label %36
    i64 4, label %46
    i64 3, label %54
    i64 2, label %64
    i64 1, label %74
    i64 0, label %83
  ]

12:                                               ; preds = %3
  %13 = load ptr, ptr %4, align 8
  %14 = getelementptr inbounds nuw %struct.fasthash_state, ptr %13, i32 0, i32 0
  %15 = load ptr, ptr %5, align 8
  call void @llvm.memcpy.p0.p0.i64(ptr align 8 %14, ptr align 1 %15, i64 8, i1 false)
  br label %84

16:                                               ; preds = %3
  %17 = load ptr, ptr %5, align 8
  %18 = getelementptr inbounds i8, ptr %17, i64 6
  %19 = load i8, ptr %18, align 1
  %20 = sext i8 %19 to i64
  %21 = shl i64 %20, 48
  %22 = load ptr, ptr %4, align 8
  %23 = getelementptr inbounds nuw %struct.fasthash_state, ptr %22, i32 0, i32 0
  %24 = load i64, ptr %23, align 8
  %25 = or i64 %24, %21
  store i64 %25, ptr %23, align 8
  br label %26

26:                                               ; preds = %3, %16
  %27 = load ptr, ptr %5, align 8
  %28 = getelementptr inbounds i8, ptr %27, i64 5
  %29 = load i8, ptr %28, align 1
  %30 = sext i8 %29 to i64
  %31 = shl i64 %30, 40
  %32 = load ptr, ptr %4, align 8
  %33 = getelementptr inbounds nuw %struct.fasthash_state, ptr %32, i32 0, i32 0
  %34 = load i64, ptr %33, align 8
  %35 = or i64 %34, %31
  store i64 %35, ptr %33, align 8
  br label %36

36:                                               ; preds = %3, %26
  %37 = load ptr, ptr %5, align 8
  %38 = getelementptr inbounds i8, ptr %37, i64 4
  %39 = load i8, ptr %38, align 1
  %40 = sext i8 %39 to i64
  %41 = shl i64 %40, 32
  %42 = load ptr, ptr %4, align 8
  %43 = getelementptr inbounds nuw %struct.fasthash_state, ptr %42, i32 0, i32 0
  %44 = load i64, ptr %43, align 8
  %45 = or i64 %44, %41
  store i64 %45, ptr %43, align 8
  br label %46

46:                                               ; preds = %3, %36
  %47 = load ptr, ptr %5, align 8
  call void @llvm.memcpy.p0.p0.i64(ptr align 4 %7, ptr align 1 %47, i64 4, i1 false)
  %48 = load i32, ptr %7, align 4
  %49 = zext i32 %48 to i64
  %50 = load ptr, ptr %4, align 8
  %51 = getelementptr inbounds nuw %struct.fasthash_state, ptr %50, i32 0, i32 0
  %52 = load i64, ptr %51, align 8
  %53 = or i64 %52, %49
  store i64 %53, ptr %51, align 8
  br label %84

54:                                               ; preds = %3
  %55 = load ptr, ptr %5, align 8
  %56 = getelementptr inbounds i8, ptr %55, i64 2
  %57 = load i8, ptr %56, align 1
  %58 = sext i8 %57 to i64
  %59 = shl i64 %58, 16
  %60 = load ptr, ptr %4, align 8
  %61 = getelementptr inbounds nuw %struct.fasthash_state, ptr %60, i32 0, i32 0
  %62 = load i64, ptr %61, align 8
  %63 = or i64 %62, %59
  store i64 %63, ptr %61, align 8
  br label %64

64:                                               ; preds = %3, %54
  %65 = load ptr, ptr %5, align 8
  %66 = getelementptr inbounds i8, ptr %65, i64 1
  %67 = load i8, ptr %66, align 1
  %68 = sext i8 %67 to i64
  %69 = shl i64 %68, 8
  %70 = load ptr, ptr %4, align 8
  %71 = getelementptr inbounds nuw %struct.fasthash_state, ptr %70, i32 0, i32 0
  %72 = load i64, ptr %71, align 8
  %73 = or i64 %72, %69
  store i64 %73, ptr %71, align 8
  br label %74

74:                                               ; preds = %3, %64
  %75 = load ptr, ptr %5, align 8
  %76 = getelementptr inbounds i8, ptr %75, i64 0
  %77 = load i8, ptr %76, align 1
  %78 = sext i8 %77 to i64
  %79 = load ptr, ptr %4, align 8
  %80 = getelementptr inbounds nuw %struct.fasthash_state, ptr %79, i32 0, i32 0
  %81 = load i64, ptr %80, align 8
  %82 = or i64 %81, %78
  store i64 %82, ptr %80, align 8
  br label %84

83:                                               ; preds = %3
  store i32 1, ptr %8, align 4
  br label %86

84:                                               ; preds = %3, %74, %46, %12
  %85 = load ptr, ptr %4, align 8
  call void @fasthash_combine(ptr noundef %85)
  store i32 0, ptr %8, align 4
  br label %86

86:                                               ; preds = %84, %83
  call void @llvm.lifetime.end.p0(i64 4, ptr %7) #11
  %87 = load i32, ptr %8, align 4
  switch i32 %87, label %89 [
    i32 0, label %88
    i32 1, label %88
  ]

88:                                               ; preds = %86, %86
  ret void

89:                                               ; preds = %86
  unreachable
}

; Function Attrs: inlinehint nounwind uwtable
define internal i32 @pg_rightmost_one_pos64(i64 noundef %0) #6 {
  %2 = alloca i64, align 8
  store i64 %0, ptr %2, align 8
  %3 = load i64, ptr %2, align 8
  %4 = call i64 @llvm.cttz.i64(i64 %3, i1 true)
  %5 = trunc i64 %4 to i32
  ret i32 %5
}

; Function Attrs: inlinehint nounwind uwtable
define internal void @fasthash_combine(ptr noundef %0) #6 {
  %2 = alloca ptr, align 8
  store ptr %0, ptr %2, align 8
  %3 = load ptr, ptr %2, align 8
  %4 = getelementptr inbounds nuw %struct.fasthash_state, ptr %3, i32 0, i32 0
  %5 = load i64, ptr %4, align 8
  %6 = call i64 @fasthash_mix(i64 noundef %5, i64 noundef 0)
  %7 = load ptr, ptr %2, align 8
  %8 = getelementptr inbounds nuw %struct.fasthash_state, ptr %7, i32 0, i32 1
  %9 = load i64, ptr %8, align 8
  %10 = xor i64 %9, %6
  store i64 %10, ptr %8, align 8
  %11 = load ptr, ptr %2, align 8
  %12 = getelementptr inbounds nuw %struct.fasthash_state, ptr %11, i32 0, i32 1
  %13 = load i64, ptr %12, align 8
  %14 = mul i64 %13, -8645972361240307355
  store i64 %14, ptr %12, align 8
  ret void
}

; Function Attrs: inlinehint nounwind uwtable
define internal i32 @fasthash_reduce32(i64 noundef %0) #6 {
  %2 = alloca i64, align 8
  store i64 %0, ptr %2, align 8
  %3 = load i64, ptr %2, align 8
  %4 = load i64, ptr %2, align 8
  %5 = lshr i64 %4, 32
  %6 = sub i64 %3, %5
  %7 = trunc i64 %6 to i32
  ret i32 %7
}

; Function Attrs: inlinehint nounwind uwtable
define internal i64 @fasthash_final64(ptr noundef %0, i64 noundef %1) #6 {
  %3 = alloca ptr, align 8
  %4 = alloca i64, align 8
  store ptr %0, ptr %3, align 8
  store i64 %1, ptr %4, align 8
  %5 = load ptr, ptr %3, align 8
  %6 = getelementptr inbounds nuw %struct.fasthash_state, ptr %5, i32 0, i32 1
  %7 = load i64, ptr %6, align 8
  %8 = load i64, ptr %4, align 8
  %9 = call i64 @fasthash_mix(i64 noundef %7, i64 noundef %8)
  ret i64 %9
}

; Function Attrs: inlinehint nounwind uwtable
define internal i64 @fasthash_accum_cstring_unaligned(ptr noundef %0, ptr noundef %1) #6 {
  %3 = alloca ptr, align 8
  %4 = alloca ptr, align 8
  %5 = alloca ptr, align 8
  %6 = alloca i64, align 8
  store ptr %0, ptr %3, align 8
  store ptr %1, ptr %4, align 8
  call void @llvm.lifetime.start.p0(i64 8, ptr %5) #11
  %7 = load ptr, ptr %4, align 8
  store ptr %7, ptr %5, align 8
  br label %8

8:                                                ; preds = %28, %2
  %9 = load ptr, ptr %4, align 8
  %10 = load i8, ptr %9, align 1
  %11 = icmp ne i8 %10, 0
  br i1 %11, label %12, label %35

12:                                               ; preds = %8
  call void @llvm.lifetime.start.p0(i64 8, ptr %6) #11
  store i64 0, ptr %6, align 8
  br label %13

13:                                               ; preds = %25, %12
  %14 = load i64, ptr %6, align 8
  %15 = icmp ult i64 %14, 8
  br i1 %15, label %16, label %23

16:                                               ; preds = %13
  %17 = load ptr, ptr %4, align 8
  %18 = load i64, ptr %6, align 8
  %19 = getelementptr inbounds nuw i8, ptr %17, i64 %18
  %20 = load i8, ptr %19, align 1
  %21 = sext i8 %20 to i32
  %22 = icmp ne i32 %21, 0
  br label %23

23:                                               ; preds = %16, %13
  %24 = phi i1 [ false, %13 ], [ %22, %16 ]
  br i1 %24, label %25, label %28

25:                                               ; preds = %23
  %26 = load i64, ptr %6, align 8
  %27 = add i64 %26, 1
  store i64 %27, ptr %6, align 8
  br label %13, !llvm.loop !27

28:                                               ; preds = %23
  %29 = load ptr, ptr %3, align 8
  %30 = load ptr, ptr %4, align 8
  %31 = load i64, ptr %6, align 8
  call void @fasthash_accum(ptr noundef %29, ptr noundef %30, i64 noundef %31)
  %32 = load i64, ptr %6, align 8
  %33 = load ptr, ptr %4, align 8
  %34 = getelementptr inbounds nuw i8, ptr %33, i64 %32
  store ptr %34, ptr %4, align 8
  call void @llvm.lifetime.end.p0(i64 8, ptr %6) #11
  br label %8, !llvm.loop !28

35:                                               ; preds = %8
  %36 = load ptr, ptr %4, align 8
  %37 = load ptr, ptr %5, align 8
  %38 = ptrtoint ptr %36 to i64
  %39 = ptrtoint ptr %37 to i64
  %40 = sub i64 %38, %39
  call void @llvm.lifetime.end.p0(i64 8, ptr %5) #11
  ret i64 %40
}

; Function Attrs: inlinehint nounwind uwtable
define internal i64 @fasthash_accum_cstring_aligned(ptr noundef %0, ptr noundef %1) #6 {
  %3 = alloca ptr, align 8
  %4 = alloca ptr, align 8
  %5 = alloca ptr, align 8
  %6 = alloca i64, align 8
  %7 = alloca i64, align 8
  %8 = alloca i64, align 8
  %9 = alloca i32, align 4
  store ptr %0, ptr %3, align 8
  store ptr %1, ptr %4, align 8
  call void @llvm.lifetime.start.p0(i64 8, ptr %5) #11
  %10 = load ptr, ptr %4, align 8
  store ptr %10, ptr %5, align 8
  call void @llvm.lifetime.start.p0(i64 8, ptr %6) #11
  call void @llvm.lifetime.start.p0(i64 8, ptr %7) #11
  br label %11

11:                                               ; preds = %32, %2
  call void @llvm.lifetime.start.p0(i64 8, ptr %8) #11
  %12 = load ptr, ptr %4, align 8
  %13 = load i64, ptr %12, align 8
  store i64 %13, ptr %8, align 8
  %14 = load i64, ptr %8, align 8
  %15 = sub i64 %14, 72340172838076673
  %16 = load i64, ptr %8, align 8
  %17 = xor i64 %16, -1
  %18 = and i64 %15, %17
  %19 = and i64 %18, -9187201950435737472
  store i64 %19, ptr %7, align 8
  %20 = load i64, ptr %7, align 8
  %21 = icmp ne i64 %20, 0
  br i1 %21, label %22, label %23

22:                                               ; preds = %11
  store i32 2, ptr %9, align 4
  br label %30

23:                                               ; preds = %11
  %24 = load i64, ptr %8, align 8
  %25 = load ptr, ptr %3, align 8
  %26 = getelementptr inbounds nuw %struct.fasthash_state, ptr %25, i32 0, i32 0
  store i64 %24, ptr %26, align 8
  %27 = load ptr, ptr %3, align 8
  call void @fasthash_combine(ptr noundef %27)
  %28 = load ptr, ptr %4, align 8
  %29 = getelementptr inbounds nuw i8, ptr %28, i64 8
  store ptr %29, ptr %4, align 8
  store i32 0, ptr %9, align 4
  br label %30

30:                                               ; preds = %23, %22
  call void @llvm.lifetime.end.p0(i64 8, ptr %8) #11
  %31 = load i32, ptr %9, align 4
  switch i32 %31, label %49 [
    i32 0, label %32
    i32 2, label %33
  ]

32:                                               ; preds = %30
  br label %11

33:                                               ; preds = %30
  %34 = load i64, ptr %7, align 8
  %35 = call i32 @pg_rightmost_one_pos64(i64 noundef %34)
  %36 = sdiv i32 %35, 8
  %37 = sext i32 %36 to i64
  store i64 %37, ptr %6, align 8
  %38 = load ptr, ptr %3, align 8
  %39 = load ptr, ptr %4, align 8
  %40 = load i64, ptr %6, align 8
  call void @fasthash_accum(ptr noundef %38, ptr noundef %39, i64 noundef %40)
  %41 = load i64, ptr %6, align 8
  %42 = load ptr, ptr %4, align 8
  %43 = getelementptr inbounds nuw i8, ptr %42, i64 %41
  store ptr %43, ptr %4, align 8
  %44 = load ptr, ptr %4, align 8
  %45 = load ptr, ptr %5, align 8
  %46 = ptrtoint ptr %44 to i64
  %47 = ptrtoint ptr %45 to i64
  %48 = sub i64 %46, %47
  store i32 1, ptr %9, align 4
  call void @llvm.lifetime.end.p0(i64 8, ptr %7) #11
  call void @llvm.lifetime.end.p0(i64 8, ptr %6) #11
  call void @llvm.lifetime.end.p0(i64 8, ptr %5) #11
  ret i64 %48

49:                                               ; preds = %30
  unreachable
}

; Function Attrs: inlinehint nounwind uwtable
define internal i32 @fasthash_final32(ptr noundef %0, i64 noundef %1) #6 {
  %3 = alloca ptr, align 8
  %4 = alloca i64, align 8
  store ptr %0, ptr %3, align 8
  store i64 %1, ptr %4, align 8
  %5 = load ptr, ptr %3, align 8
  %6 = load i64, ptr %4, align 8
  %7 = call i64 @fasthash_final64(ptr noundef %5, i64 noundef %6)
  %8 = call i32 @fasthash_reduce32(i64 noundef %7)
  ret i32 %8
}

; Function Attrs: inlinehint nounwind uwtable
define internal i64 @fasthash_accum_cstring(ptr noundef %0, ptr noundef %1) #6 {
  %3 = alloca i64, align 8
  %4 = alloca ptr, align 8
  %5 = alloca ptr, align 8
  %6 = alloca i64, align 8
  %7 = alloca i32, align 4
  store ptr %0, ptr %4, align 8
  store ptr %1, ptr %5, align 8
  call void @llvm.lifetime.start.p0(i64 8, ptr %6) #11
  %8 = load ptr, ptr %5, align 8
  %9 = ptrtoint ptr %8 to i64
  %10 = urem i64 %9, 8
  %11 = icmp eq i64 %10, 0
  br i1 %11, label %12, label %17

12:                                               ; preds = %2
  %13 = load ptr, ptr %4, align 8
  %14 = load ptr, ptr %5, align 8
  %15 = call i64 @fasthash_accum_cstring_aligned(ptr noundef %13, ptr noundef %14)
  store i64 %15, ptr %6, align 8
  %16 = load i64, ptr %6, align 8
  store i64 %16, ptr %3, align 8
  store i32 1, ptr %7, align 4
  br label %21

17:                                               ; preds = %2
  %18 = load ptr, ptr %4, align 8
  %19 = load ptr, ptr %5, align 8
  %20 = call i64 @fasthash_accum_cstring_unaligned(ptr noundef %18, ptr noundef %19)
  store i64 %20, ptr %3, align 8
  store i32 1, ptr %7, align 4
  br label %21

21:                                               ; preds = %17, %12
  call void @llvm.lifetime.end.p0(i64 8, ptr %6) #11
  %22 = load i64, ptr %3, align 8
  ret i64 %22
}

; Function Attrs: inlinehint nounwind uwtable
define internal void @fasthash_init(ptr noundef %0, i64 noundef %1) #6 {
  %3 = alloca ptr, align 8
  %4 = alloca i64, align 8
  store ptr %0, ptr %3, align 8
  store i64 %1, ptr %4, align 8
  %5 = load ptr, ptr %3, align 8
  call void @llvm.memset.p0.i64(ptr align 8 %5, i8 0, i64 16, i1 false)
  %6 = load i64, ptr %4, align 8
  %7 = xor i64 %6, -8645972361240307355
  %8 = load ptr, ptr %3, align 8
  %9 = getelementptr inbounds nuw %struct.fasthash_state, ptr %8, i32 0, i32 1
  store i64 %7, ptr %9, align 8
  ret void
}

; Function Attrs: inlinehint nounwind uwtable
define internal i32 @hash_string(ptr noundef %0) #6 {
  %2 = alloca ptr, align 8
  %3 = alloca %struct.fasthash_state, align 8
  %4 = alloca i64, align 8
  store ptr %0, ptr %2, align 8
  call void @llvm.lifetime.start.p0(i64 16, ptr %3) #11
  call void @llvm.lifetime.start.p0(i64 8, ptr %4) #11
  call void @fasthash_init(ptr noundef %3, i64 noundef 0)
  %5 = load ptr, ptr %2, align 8
  %6 = call i64 @fasthash_accum_cstring(ptr noundef %3, ptr noundef %5)
  store i64 %6, ptr %4, align 8
  %7 = load i64, ptr %4, align 8
  %8 = call i32 @fasthash_final32(ptr noundef %3, i64 noundef %7)
  call void @llvm.lifetime.end.p0(i64 8, ptr %4) #11
  call void @llvm.lifetime.end.p0(i64 16, ptr %3) #11
  ret i32 %8
}